; Function Attrs: mustprogress nounwind uwtable
define internal fastcc noundef range(i32 0, 4) i32 @_ZL25DecodeSimpleRegisterClassILj4ELj0ELj16EEN4llvm14MCDisassembler12DecodeStatusERNS0_6MCInstEjmPKS1_(ptr noundef nonnull align 8 dereferenceable(128) %0, i32 noundef %1) unnamed_addr #0 {
  %3 = icmp ugt i32 %1, 15
  br i1 %3, label %20, label %4

4:                                                ; preds = %2
  %5 = load ptr, ptr getelementptr inbounds nuw (i8, ptr @_ZN4llvm24AArch64MCRegisterClassesE, i64 128), align 8
  %6 = zext nneg i32 %1 to i64
  %7 = getelementptr inbounds nuw i16, ptr %5, i64 %6
  %8 = load i16, ptr %7, align 2
  %.sroa.3.8.insert.ext.i = zext i16 %8 to i64
  %9 = getelementptr inbounds nuw i8, ptr %0, i64 16
  %10 = tail call noundef i64 @_ZNK4llvm15SmallVectorBaseIjE4sizeEv(ptr noundef nonnull align 8 dereferenceable(16) %9) #13
  %11 = add i64 %10, 1
  %12 = tail call noundef i64 @_ZNK4llvm15SmallVectorBaseIjE8capacityEv(ptr noundef nonnull align 8 dereferenceable(16) %9) #13
  %.not.i.i.i.i = icmp ugt i64 %11, %12
  br i1 %.not.i.i.i.i, label %13, label %_ZN4llvm6MCInst10addOperandENS_9MCOperandE.exit

13:                                               ; preds = %4
  %14 = getelementptr inbounds nuw i8, ptr %0, i64 32
  tail call void @_ZN4llvm15SmallVectorBaseIjE8grow_podEPvmm(ptr noundef nonnull align 8 dereferenceable(16) %9, ptr noundef nonnull %14, i64 noundef %11, i64 noundef 16) #13
  br label %_ZN4llvm6MCInst10addOperandENS_9MCOperandE.exit

_ZN4llvm6MCInst10addOperandENS_9MCOperandE.exit:  ; preds = %4, %13
  %15 = load ptr, ptr %9, align 8
  %16 = tail call noundef i64 @_ZNK4llvm15SmallVectorBaseIjE4sizeEv(ptr noundef nonnull align 8 dereferenceable(16) %9) #13
  %17 = getelementptr inbounds %"class.llvm::MCOperand", ptr %15, i64 %16
  store i8 1, ptr %17, align 1
  %.sroa.22.0..sroa_idx.i.i = getelementptr inbounds nuw i8, ptr %17, i64 8
  store i64 %.sroa.3.8.insert.ext.i, ptr %.sroa.22.0..sroa_idx.i.i, align 1
  %18 = tail call noundef i64 @_ZNK4llvm15SmallVectorBaseIjE4sizeEv(ptr noundef nonnull align 8 dereferenceable(16) %9) #13
  %19 = add i64 %18, 1
  tail call void @_ZN4llvm15SmallVectorBaseIjE8set_sizeEm(ptr noundef nonnull align 8 dereferenceable(16) %9, i64 noundef %19) #13
  br label %20

20:                                               ; preds = %2, %_ZN4llvm6MCInst10addOperandENS_9MCOperandE.exit
  %.0 = phi i32 [ 3, %_ZN4llvm6MCInst10addOperandENS_9MCOperandE.exit ], [ 0, %2 ]
  ret i32 %.0
}